; Function Attrs: nounwind uwtable
define dso_local zeroext i1 @ic_add_completion(ptr noundef readonly captures(none) %0, ptr noundef %1) local_unnamed_addr #0 {
  %3 = getelementptr inbounds nuw i8, ptr %0, i64 40
  %4 = load ptr, ptr %3, align 8, !tbaa !71
  %5 = load ptr, ptr %0, align 8, !tbaa !75
  %6 = getelementptr inbounds nuw i8, ptr %0, i64 32
  %7 = load ptr, ptr %6, align 8, !tbaa !77
  %8 = tail call zeroext i1 %4(ptr noundef %5, ptr noundef %7, ptr noundef %1, ptr noundef null, ptr noundef null, i64 noundef 0, i64 noundef 0) #32
  ret i1 %8
}